; Function Attrs: mustprogress nofree norecurse nosync nounwind willreturn memory(none) uwtable
define internal signext range(i8 0, 2) i8 @compareEntries(ptr %0, ptr %1) #8 {
  %3 = ptrtoint ptr %0 to i64
  %.sroa.01.0.extract.trunc = trunc i64 %3 to i32
  %4 = ptrtoint ptr %1 to i64
  %.sroa.0.0.extract.trunc = trunc i64 %4 to i32
  %5 = icmp ne i32 %.sroa.01.0.extract.trunc, %.sroa.0.0.extract.trunc
  %6 = zext i1 %5 to i8
  ret i8 %6
}